; ModuleID = 'bench/darktable/original/Common.cpp.ll'
source_filename = "bench/darktable/original/Common.cpp.ll"
target datalayout = "e-m:e-p270:32:32-p271:32:32-p272:64:64-i64:64-i128:128-f80:128-n8:16:32:64-S128"
target triple = "x86_64-pc-linux-gnu"

%struct.__va_list_tag = type { i32, i32, ptr, ptr }

@stdout = external local_unnamed_addr global ptr, align 8
@.str.1 = private unnamed_addr constant [10 x i8] c"RawSpeed:\00", align 1

; Function Attrs: mustprogress nofree nounwind uwtable
define hidden void @_ZN8rawspeed8writeLogENS_10DEBUG_PRIOEPKcz(i32 noundef %0, ptr nocapture noundef readonly %1, ...) local_unnamed_addr #0 {
  %3 = alloca [1 x %struct.__va_list_tag], align 16
  %4 = icmp slt i32 %0, 4096
  br i1 %4, label %6, label %5

5:                                                ; preds = %2
  call void @llvm.lifetime.start.p0(i64 24, ptr nonnull %3) #5
  br label %13

6:                                                ; preds = %2
  %7 = load ptr, ptr @stdout, align 8, !tbaa !6
  %8 = tail call i64 @fwrite(ptr nonnull @.str.1, i64 9, i64 1, ptr %7)
  call void @llvm.lifetime.start.p0(i64 24, ptr nonnull %3) #5
  call void @llvm.va_start.p0(ptr nonnull %3)
  %9 = load ptr, ptr @stdout, align 8, !tbaa !6
  %10 = call i32 @vfprintf(ptr noundef %9, ptr noundef %1, ptr noundef nonnull %3) #5
  call void @llvm.va_end.p0(ptr nonnull %3)
  %11 = load ptr, ptr @stdout, align 8, !tbaa !6
  %12 = call i32 @fputc(i32 10, ptr %11)
  br label %13

13:                                               ; preds = %6, %5
  call void @llvm.lifetime.end.p0(i64 24, ptr nonnull %3) #5
  ret void
}

; Function Attrs: mustprogress nocallback nofree nosync nounwind willreturn memory(argmem: readwrite)
declare void @llvm.lifetime.start.p0(i64 immarg, ptr nocapture) #1

; Function Attrs: nofree nounwind
declare noundef i32 @vfprintf(ptr nocapture noundef, ptr nocapture noundef readonly, ptr noundef) local_unnamed_addr #2

; Function Attrs: mustprogress nocallback nofree nosync nounwind willreturn memory(argmem: readwrite)
declare void @llvm.lifetime.end.p0(i64 immarg, ptr nocapture) #1

; Function Attrs: nofree nounwind
declare noundef i64 @fwrite(ptr nocapture noundef, i64 noundef, i64 noundef, ptr nocapture noundef) local_unnamed_addr #3

; Function Attrs: nofree nounwind
declare noundef i32 @fputc(i32 noundef, ptr nocapture noundef) local_unnamed_addr #3

; Function Attrs: mustprogress nocallback nofree nosync nounwind willreturn
declare void @llvm.va_start.p0(ptr) #4

; Function Attrs: mustprogress nocallback nofree nosync nounwind willreturn
declare void @llvm.va_end.p0(ptr) #4


!llvm.linker.options = !{}
!llvm.module.flags = !{!0, !1, !2, !3, !4, !5}

!0 = !{i32 7, !"Dwarf Version", i32 5}
!1 = !{i32 2, !"Debug Info Version", i32 3}
!2 = !{i32 1, !"wchar_size", i32 4}
!3 = !{i32 8, !"PIC Level", i32 2}
!4 = !{i32 7, !"uwtable", i32 2}
!5 = !{i32 7, !"debug-info-assignment-tracking", i1 true}
!6 = !{!7, !7, i64 0}
!7 = !{!"any pointer", !8, i64 0}
!8 = !{!"omnipotent char", !9, i64 0}
!9 = !{!"Simple C++ TBAA"}
